target datalayout = "e-m:e-p270:32:32-p271:32:32-p272:64:64-i64:64-i128:128-f80:128-n8:16:32:64-S128"
target triple = "x86_64-pc-linux-gnu"

%"class.std::__cxx11::basic_string" = type { %"struct.std::__cxx11::basic_string<char>::_Alloc_hider", i64, %union.anon }
%"struct.std::__cxx11::basic_string<char>::_Alloc_hider" = type { ptr }
%union.anon = type { i64, [8 x i8] }
%"class.gmx::Mdrunner" = type { %struct.gmx_hw_opt_t, %"class.gmx::ArrayRef", ptr, %"struct.gmx::MdrunOptions", %"struct.gmx::DomdecOptions", ptr, ptr, ptr, ptr, ptr, i32, %struct.ReplicaExchangeParameters, float, %"class.std::unique_ptr", ptr, ptr, ptr, ptr, i32, %"class.std::unique_ptr.2", %"class.std::unique_ptr.10", %"class.std::unique_ptr.18", ptr, %"class.gmx::SimulationInputHandle" }
%struct.gmx_hw_opt_t = type <{ i32, i32, i32, i32, i32, i32, i32, [4 x i8], %"class.std::__cxx11::basic_string", %"class.std::__cxx11::basic_string", i8, [7 x i8] }>
%"class.gmx::ArrayRef" = type { %"struct.gmx::ArrayRefIter", %"struct.gmx::ArrayRefIter" }
%"struct.gmx::ArrayRefIter" = type { ptr }
%"struct.gmx::MdrunOptions" = type { i8, i8, i8, i8, i32, %"struct.gmx::CheckpointOptions", i64, float, %"struct.gmx::TimingOptions", i8, i8, [2 x i8], %"struct.gmx::ImdOptions", i8, i32 }
%"struct.gmx::CheckpointOptions" = type { i8, float }
%"struct.gmx::TimingOptions" = type <{ i32, i8, [3 x i8] }>
%"struct.gmx::ImdOptions" = type <{ i32, i8, i8, i8, i8 }>
%"struct.gmx::DomdecOptions" = type { i8, i8, [3 x i32], i32, i32, float, float, i32, float, ptr, ptr, ptr }
%struct.ReplicaExchangeParameters = type { i32, i32, i32 }
%"class.std::unique_ptr" = type { %"struct.std::__uniq_ptr_data" }
%"struct.std::__uniq_ptr_data" = type { %"class.std::__uniq_ptr_impl" }
%"class.std::__uniq_ptr_impl" = type { %"class.std::tuple" }
%"class.std::tuple" = type { %"struct.std::_Tuple_impl" }
%"struct.std::_Tuple_impl" = type { %"struct.std::_Head_base.1" }
%"struct.std::_Head_base.1" = type { ptr }
%"class.std::unique_ptr.2" = type { %"struct.std::__uniq_ptr_data.3" }
%"struct.std::__uniq_ptr_data.3" = type { %"class.std::__uniq_ptr_impl.4" }
%"class.std::__uniq_ptr_impl.4" = type { %"class.std::tuple.5" }
%"class.std::tuple.5" = type { %"struct.std::_Tuple_impl.6" }
%"struct.std::_Tuple_impl.6" = type { %"struct.std::_Head_base.9" }
%"struct.std::_Head_base.9" = type { ptr }
%"class.std::unique_ptr.10" = type { %"struct.std::__uniq_ptr_data.11" }
%"struct.std::__uniq_ptr_data.11" = type { %"class.std::__uniq_ptr_impl.12" }
%"class.std::__uniq_ptr_impl.12" = type { %"class.std::tuple.13" }
%"class.std::tuple.13" = type { %"struct.std::_Tuple_impl.14" }
%"struct.std::_Tuple_impl.14" = type { %"struct.std::_Head_base.17" }
%"struct.std::_Head_base.17" = type { ptr }
%"class.std::unique_ptr.18" = type { %"struct.std::__uniq_ptr_data.19" }
%"struct.std::__uniq_ptr_data.19" = type { %"class.std::__uniq_ptr_impl.20" }
%"class.std::__uniq_ptr_impl.20" = type { %"class.std::tuple.21" }
%"class.std::tuple.21" = type { %"struct.std::_Tuple_impl.22" }
%"struct.std::_Tuple_impl.22" = type { %"struct.std::_Head_base.25" }
%"struct.std::_Head_base.25" = type { ptr }
%"class.gmx::SimulationInputHandle" = type { %"class.std::unique_ptr.26" }
%"class.std::unique_ptr.26" = type { %"struct.std::__uniq_ptr_data.27" }
%"struct.std::__uniq_ptr_data.27" = type { %"class.std::__uniq_ptr_impl.28" }
%"class.std::__uniq_ptr_impl.28" = type { %"class.std::tuple.29" }
%"class.std::tuple.29" = type { %"struct.std::_Tuple_impl.30" }
%"struct.std::_Tuple_impl.30" = type { %"struct.std::_Head_base.33" }
%"struct.std::_Head_base.33" = type { ptr }

@_ZTISt9exception = external constant ptr
@_ZN3gmx8MdrunnerD1Ev = unnamed_addr alias void (ptr), ptr @_ZN3gmx8MdrunnerD2Ev

; Function Attrs: mustprogress uwtable
define internal void @_ZN3gmxL17mdrunner_start_fnEPKv(ptr noundef %0) #3 personality ptr @__gxx_personality_v0 {
  %2 = alloca ptr, align 8
  %3 = alloca ptr, align 8
  %4 = alloca %"class.gmx::Mdrunner", align 8
  %5 = alloca ptr, align 8
  %6 = alloca i32, align 4
  %7 = alloca ptr, align 8
  store ptr %0, ptr %2, align 8, !tbaa !208
  call void @llvm.lifetime.start.p0(i64 8, ptr %3) #5
  %8 = load ptr, ptr %2, align 8, !tbaa !208
  store ptr %8, ptr %3, align 8, !tbaa !34
  call void @llvm.lifetime.start.p0(i64 400, ptr %4) #5
  %9 = load ptr, ptr %3, align 8, !tbaa !34
  invoke void @_ZNK3gmx8Mdrunner20cloneOnSpawnedThreadEv(ptr dead_on_unwind writable sret(%"class.gmx::Mdrunner") align 8 %4, ptr noundef nonnull align 8 dereferenceable(400) %9)
          to label %10 unwind label %13

10:                                               ; preds = %1
  %11 = invoke noundef i32 @_ZN3gmx8Mdrunner8mdrunnerEv(ptr noundef nonnull align 8 dereferenceable(400) %4)
          to label %12 unwind label %17

12:                                               ; preds = %10
  call void @_ZN3gmx8MdrunnerD1Ev(ptr noundef nonnull align 8 dereferenceable(400) %4) #5
  call void @llvm.lifetime.end.p0(i64 400, ptr %4) #5
  call void @llvm.lifetime.end.p0(i64 8, ptr %3) #5
  br label %36

13:                                               ; preds = %1
  %14 = landingpad { ptr, i32 }
          cleanup
          catch ptr @_ZTISt9exception
  %15 = extractvalue { ptr, i32 } %14, 0
  store ptr %15, ptr %5, align 8
  %16 = extractvalue { ptr, i32 } %14, 1
  store i32 %16, ptr %6, align 4
  br label %21

17:                                               ; preds = %10
  %18 = landingpad { ptr, i32 }
          cleanup
          catch ptr @_ZTISt9exception
  %19 = extractvalue { ptr, i32 } %18, 0
  store ptr %19, ptr %5, align 8
  %20 = extractvalue { ptr, i32 } %18, 1
  store i32 %20, ptr %6, align 4
  call void @_ZN3gmx8MdrunnerD1Ev(ptr noundef nonnull align 8 dereferenceable(400) %4) #5
  br label %21

21:                                               ; preds = %17, %13
  call void @llvm.lifetime.end.p0(i64 400, ptr %4) #5
  call void @llvm.lifetime.end.p0(i64 8, ptr %3) #5
  br label %22

22:                                               ; preds = %21
  %23 = load i32, ptr %6, align 4
  %24 = call i32 @llvm.eh.typeid.for.p0(ptr @_ZTISt9exception) #5
  %25 = icmp eq i32 %23, %24
  br i1 %25, label %26, label %37

26:                                               ; preds = %22
  call void @llvm.lifetime.start.p0(i64 8, ptr %7) #5
  %27 = load ptr, ptr %5, align 8
  %28 = call ptr @__cxa_begin_catch(ptr %27) #5
  store ptr %28, ptr %7, align 8
  %29 = load ptr, ptr %7, align 8, !tbaa !241
  invoke void @_ZN3gmx28processExceptionAsFatalErrorERKSt9exception(ptr noundef nonnull align 8 dereferenceable(8) %29) #25
          to label %30 unwind label %31

30:                                               ; preds = %26
  unreachable

31:                                               ; preds = %26
  %32 = landingpad { ptr, i32 }
          cleanup
  %33 = extractvalue { ptr, i32 } %32, 0
  store ptr %33, ptr %5, align 8
  %34 = extractvalue { ptr, i32 } %32, 1
  store i32 %34, ptr %6, align 4
  invoke void @__cxa_end_catch()
          to label %35 unwind label %42

35:                                               ; preds = %31
  call void @llvm.lifetime.end.p0(i64 8, ptr %7) #5
  br label %37

36:                                               ; preds = %12
  ret void

37:                                               ; preds = %35, %22
  %38 = load ptr, ptr %5, align 8
  %39 = load i32, ptr %6, align 4
  %40 = insertvalue { ptr, i32 } poison, ptr %38, 0
  %41 = insertvalue { ptr, i32 } %40, i32 %39, 1
  resume { ptr, i32 } %41

42:                                               ; preds = %31
  %43 = landingpad { ptr, i32 }
          catch ptr null
  %44 = extractvalue { ptr, i32 } %43, 0
  call void @__clang_call_terminate(ptr %44) #26
  unreachable
}