; Function Attrs: mustprogress uwtable
define internal void @_ZN3gmxL17mdrunner_start_fnEPKv(ptr noundef nonnull %0) #10 personality ptr @__gxx_personality_v0 {
  %2 = alloca %"class.gmx::Mdrunner", align 8
  call void @llvm.lifetime.start.p0(i64 400, ptr nonnull %2) #34
  invoke void @_ZNK3gmx8Mdrunner20cloneOnSpawnedThreadEv(ptr dead_on_unwind nonnull writable sret(%"class.gmx::Mdrunner") align 8 %2, ptr noundef nonnull align 8 dereferenceable(400) %0)
          to label %3 unwind label %6

3:                                                ; preds = %1
  %4 = invoke noundef i32 @_ZN3gmx8Mdrunner8mdrunnerEv(ptr noundef nonnull align 8 dereferenceable(400) %2)
          to label %5 unwind label %8

5:                                                ; preds = %3
  call void @_ZN3gmx8MdrunnerD1Ev(ptr noundef nonnull align 8 dereferenceable(400) %2) #34
  call void @llvm.lifetime.end.p0(i64 400, ptr nonnull %2) #34
  ret void

6:                                                ; preds = %1
  %7 = landingpad { ptr, i32 }
          cleanup
          catch ptr @_ZTISt9exception
  br label %10

8:                                                ; preds = %3
  %9 = landingpad { ptr, i32 }
          cleanup
          catch ptr @_ZTISt9exception
  call void @_ZN3gmx8MdrunnerD1Ev(ptr noundef nonnull align 8 dereferenceable(400) %2) #34
  br label %10

10:                                               ; preds = %8, %6
  %.pn = phi { ptr, i32 } [ %9, %8 ], [ %7, %6 ]
  %.06 = extractvalue { ptr, i32 } %.pn, 1
  call void @llvm.lifetime.end.p0(i64 400, ptr nonnull %2) #34
  %11 = call i32 @llvm.eh.typeid.for.p0(ptr nonnull @_ZTISt9exception) #34
  %12 = icmp eq i32 %.06, %11
  br i1 %12, label %13, label %18

13:                                               ; preds = %10
  %.0 = extractvalue { ptr, i32 } %.pn, 0
  %14 = call ptr @__cxa_begin_catch(ptr %.0) #34
  invoke void @_ZN3gmx28processExceptionAsFatalErrorERKSt9exception(ptr noundef nonnull align 8 dereferenceable(8) %14) #37
          to label %15 unwind label %16

15:                                               ; preds = %13
  unreachable

16:                                               ; preds = %13
  %17 = landingpad { ptr, i32 }
          cleanup
  invoke void @__cxa_end_catch()
          to label %18 unwind label %19

18:                                               ; preds = %16, %10
  %.merged = phi { ptr, i32 } [ %.pn, %10 ], [ %17, %16 ]
  resume { ptr, i32 } %.merged

19:                                               ; preds = %16
  %20 = landingpad { ptr, i32 }
          catch ptr null
  %21 = extractvalue { ptr, i32 } %20, 0
  call void @__clang_call_terminate(ptr %21) #35
  unreachable
}